target datalayout = "e-m:e-p270:32:32-p271:32:32-p272:64:64-i64:64-i128:128-f80:128-n8:16:32:64-S128"
target triple = "x86_64-pc-linux-gnu"

%"class.jsonnet::internal::Desugarer" = type <{ ptr, i8, [7 x i8] }>

; Function Attrs: mustprogress nounwind uwtable
define linkonce_odr void @_ZN7jsonnet8internal9DesugarerC2EPNS0_9AllocatorEb(ptr noundef nonnull align 8 dereferenceable(9) %0, ptr noundef %1, i1 noundef zeroext %2) unnamed_addr #5 comdat align 2 {
  %4 = alloca ptr, align 8
  %5 = alloca ptr, align 8
  %6 = alloca i8, align 1
  store ptr %0, ptr %4, align 8, !tbaa !59
  store ptr %1, ptr %5, align 8, !tbaa !55
  %7 = zext i1 %2 to i8
  store i8 %7, ptr %6, align 1, !tbaa !61
  %8 = load ptr, ptr %4, align 8
  %9 = getelementptr inbounds nuw %"class.jsonnet::internal::Desugarer", ptr %8, i32 0, i32 0
  %10 = load ptr, ptr %5, align 8, !tbaa !55
  store ptr %10, ptr %9, align 8, !tbaa !63
  %11 = getelementptr inbounds nuw %"class.jsonnet::internal::Desugarer", ptr %8, i32 0, i32 1
  %12 = load i8, ptr %6, align 1, !tbaa !61, !range !65, !noundef !66
  %13 = trunc i8 %12 to i1
  %14 = zext i1 %13 to i8
  store i8 %14, ptr %11, align 8, !tbaa !67
  ret void
}

; Function Attrs: mustprogress uwtable
define void @_ZN7jsonnet8internal15jsonnet_desugarEPNS0_9AllocatorERPNS0_3ASTEPSt3mapINSt7__cxx1112basic_stringIcSt11char_traitsIcESaIcEEENS0_5VmExtESt4lessISC_ESaISt4pairIKSC_SD_EEE(ptr noundef %0, ptr noundef nonnull align 8 dereferenceable(8) %1, ptr noundef %2) #4 {
  %4 = alloca ptr, align 8
  %5 = alloca ptr, align 8
  %6 = alloca ptr, align 8
  %7 = alloca %"class.jsonnet::internal::Desugarer", align 8
  store ptr %0, ptr %4, align 8, !tbaa !55
  store ptr %1, ptr %5, align 8, !tbaa !88
  store ptr %2, ptr %6, align 8, !tbaa !91
  call void @llvm.lifetime.start.p0(i64 16, ptr %7) #3
  %8 = load ptr, ptr %4, align 8, !tbaa !55
  call void @_ZN7jsonnet8internal9DesugarerC2EPNS0_9AllocatorEb(ptr noundef nonnull align 8 dereferenceable(9) %7, ptr noundef %8, i1 noundef zeroext false)
  %9 = load ptr, ptr %5, align 8, !tbaa !88
  %10 = load ptr, ptr %6, align 8, !tbaa !91
  call void @_ZN7jsonnet8internal9Desugarer11desugarFileERPNS0_3ASTEPSt3mapINSt7__cxx1112basic_stringIcSt11char_traitsIcESaIcEEENS0_5VmExtESt4lessISB_ESaISt4pairIKSB_SC_EEE(ptr noundef nonnull align 8 dereferenceable(9) %7, ptr noundef nonnull align 8 dereferenceable(8) %9, ptr noundef %10)
  call void @llvm.lifetime.end.p0(i64 16, ptr %7) #3
  ret void
}