; Function Attrs: mustprogress uwtable
define void @_ZN7jsonnet8internal15jsonnet_desugarEPNS0_9AllocatorERPNS0_3ASTEPSt3mapINSt7__cxx1112basic_stringIcSt11char_traitsIcESaIcEEENS0_5VmExtESt4lessISC_ESaISt4pairIKSC_SD_EEE(ptr noundef %0, ptr noundef nonnull align 8 dereferenceable(8) %1, ptr noundef %2) local_unnamed_addr #5 {
  %4 = alloca %"class.jsonnet::internal::Desugarer", align 8
  call void @llvm.lifetime.start.p0(i64 16, ptr nonnull %4) #28
  store ptr %0, ptr %4, align 8, !tbaa !48
  %5 = getelementptr inbounds nuw i8, ptr %4, i64 8
  store i8 0, ptr %5, align 8, !tbaa !52
  call void @_ZN7jsonnet8internal9Desugarer11desugarFileERPNS0_3ASTEPSt3mapINSt7__cxx1112basic_stringIcSt11char_traitsIcESaIcEEENS0_5VmExtESt4lessISB_ESaISt4pairIKSB_SC_EEE(ptr noundef nonnull align 8 dereferenceable(9) %4, ptr noundef nonnull align 8 dereferenceable(8) %1, ptr noundef %2)
  call void @llvm.lifetime.end.p0(i64 16, ptr nonnull %4) #28
  ret void
}